target datalayout = "e-m:e-p270:32:32-p271:32:32-p272:64:64-i64:64-i128:128-f80:128-n8:16:32:64-S128"
target triple = "x86_64-pc-linux-gnu"

%"class.std::__cxx11::basic_string" = type { %"struct.std::__cxx11::basic_string<char>::_Alloc_hider", i64, %union.anon }
%"struct.std::__cxx11::basic_string<char>::_Alloc_hider" = type { ptr }
%union.anon = type { i64, [8 x i8] }
%"class.rocksdb::Slice" = type { ptr, i64 }
%"struct.rocksdb::LockMap" = type { i64, %"struct.std::atomic", %"class.std::vector.39" }
%"struct.std::atomic" = type { %"struct.std::__atomic_base" }
%"struct.std::__atomic_base" = type { i64 }
%"class.std::vector.39" = type { %"struct.std::_Vector_base.40" }
%"struct.std::_Vector_base.40" = type { %"struct.std::_Vector_base<rocksdb::LockMapStripe *, std::allocator<rocksdb::LockMapStripe *>>::_Vector_impl" }
%"struct.std::_Vector_base<rocksdb::LockMapStripe *, std::allocator<rocksdb::LockMapStripe *>>::_Vector_impl" = type { %"struct.std::_Vector_base<rocksdb::LockMapStripe *, std::allocator<rocksdb::LockMapStripe *>>::_Vector_impl_data" }
%"struct.std::_Vector_base<rocksdb::LockMapStripe *, std::allocator<rocksdb::LockMapStripe *>>::_Vector_impl_data" = type { ptr, ptr, ptr }

; Function Attrs: inlinehint mustprogress nounwind uwtable
define linkonce_odr noundef i64 @_ZN7rocksdb6detail20FastRangeGenericImplImmE2FnEmm(i64 noundef %0, i64 noundef %1) #1 comdat align 2 {
  %3 = alloca i64, align 8
  %4 = alloca i64, align 8
  %5 = alloca i64, align 8
  %6 = alloca i64, align 8
  %7 = alloca i64, align 8
  store i64 %0, ptr %3, align 8, !tbaa !4
  store i64 %1, ptr %4, align 8, !tbaa !4
  call void @llvm.lifetime.start.p0(i64 8, ptr %5) #4
  %8 = load i64, ptr %4, align 8, !tbaa !4
  store i64 %8, ptr %5, align 8, !tbaa !4
  call void @llvm.lifetime.start.p0(i64 8, ptr %6) #4
  %9 = load i64, ptr %5, align 8, !tbaa !4
  %10 = and i64 %9, 4294967295
  %11 = load i64, ptr %3, align 8, !tbaa !4
  %12 = and i64 %11, 4294967295
  %13 = mul i64 %10, %12
  store i64 %13, ptr %6, align 8, !tbaa !4
  %14 = load i64, ptr %6, align 8, !tbaa !4
  %15 = lshr i64 %14, 32
  store i64 %15, ptr %6, align 8, !tbaa !4
  %16 = load i64, ptr %5, align 8, !tbaa !4
  %17 = and i64 %16, 4294967295
  %18 = load i64, ptr %3, align 8, !tbaa !4
  %19 = lshr i64 %18, 32
  %20 = mul i64 %17, %19
  %21 = load i64, ptr %6, align 8, !tbaa !4
  %22 = add i64 %21, %20
  store i64 %22, ptr %6, align 8, !tbaa !4
  call void @llvm.lifetime.start.p0(i64 8, ptr %7) #4
  %23 = load i64, ptr %5, align 8, !tbaa !4
  %24 = lshr i64 %23, 32
  %25 = load i64, ptr %3, align 8, !tbaa !4
  %26 = and i64 %25, 4294967295
  %27 = mul i64 %24, %26
  store i64 %27, ptr %7, align 8, !tbaa !4
  %28 = load i64, ptr %7, align 8, !tbaa !4
  %29 = trunc i64 %28 to i32
  %30 = zext i32 %29 to i64
  %31 = load i64, ptr %6, align 8, !tbaa !4
  %32 = add i64 %31, %30
  store i64 %32, ptr %6, align 8, !tbaa !4
  %33 = load i64, ptr %6, align 8, !tbaa !4
  %34 = lshr i64 %33, 32
  store i64 %34, ptr %6, align 8, !tbaa !4
  %35 = load i64, ptr %7, align 8, !tbaa !4
  %36 = lshr i64 %35, 32
  %37 = load i64, ptr %6, align 8, !tbaa !4
  %38 = add i64 %37, %36
  store i64 %38, ptr %6, align 8, !tbaa !4
  %39 = load i64, ptr %5, align 8, !tbaa !4
  %40 = lshr i64 %39, 32
  %41 = load i64, ptr %3, align 8, !tbaa !4
  %42 = lshr i64 %41, 32
  %43 = mul i64 %40, %42
  %44 = load i64, ptr %6, align 8, !tbaa !4
  %45 = add i64 %44, %43
  store i64 %45, ptr %6, align 8, !tbaa !4
  %46 = load i64, ptr %6, align 8, !tbaa !4
  call void @llvm.lifetime.end.p0(i64 8, ptr %7) #4
  call void @llvm.lifetime.end.p0(i64 8, ptr %6) #4
  call void @llvm.lifetime.end.p0(i64 8, ptr %5) #4
  ret i64 %46
}

; Function Attrs: mustprogress nounwind uwtable
define available_externally noundef ptr @_ZNKSt7__cxx1112basic_stringIcSt11char_traitsIcESaIcEE7_M_dataEv(ptr noundef nonnull align 8 dereferenceable(32) %0) #3 align 2 {
  %2 = alloca ptr, align 8
  store ptr %0, ptr %2, align 8, !tbaa !29
  %3 = load ptr, ptr %2, align 8
  %4 = getelementptr inbounds nuw %"class.std::__cxx11::basic_string", ptr %3, i32 0, i32 0
  %5 = getelementptr inbounds nuw %"struct.std::__cxx11::basic_string<char>::_Alloc_hider", ptr %4, i32 0, i32 0
  %6 = load ptr, ptr %5, align 8, !tbaa !529
  ret ptr %6
}

; Function Attrs: inlinehint mustprogress uwtable
define linkonce_odr noundef i64 @_ZN7rocksdb16FastRangeGenericImmEET0_T_S1_(i64 noundef %0, i64 noundef %1) #9 comdat {
  %3 = alloca i64, align 8
  %4 = alloca i64, align 8
  store i64 %0, ptr %3, align 8, !tbaa !4
  store i64 %1, ptr %4, align 8, !tbaa !4
  %5 = load i64, ptr %3, align 8, !tbaa !4
  %6 = load i64, ptr %4, align 8, !tbaa !4
  %7 = call noundef i64 @_ZN7rocksdb6detail20FastRangeGenericImplImmE2FnEmm(i64 noundef %5, i64 noundef %6)
  ret i64 %7
}

; Function Attrs: inlinehint mustprogress uwtable
define linkonce_odr noundef i64 @_ZN7rocksdb8NPHash64EPKcm(ptr noundef %0, i64 noundef %1) #9 comdat {
  %3 = alloca ptr, align 8
  %4 = alloca i64, align 8
  store ptr %0, ptr %3, align 8, !tbaa !31
  store i64 %1, ptr %4, align 8, !tbaa !4
  %5 = load ptr, ptr %3, align 8, !tbaa !31
  %6 = load i64, ptr %4, align 8, !tbaa !4
  %7 = call noundef i64 @_ZN7rocksdb6Hash64EPKcm(ptr noundef %5, i64 noundef %6)
  ret i64 %7
}

; Function Attrs: mustprogress nounwind uwtable
define linkonce_odr noundef i64 @_ZNK7rocksdb5Slice4sizeEv(ptr noundef nonnull align 8 dereferenceable(16) %0) #3 comdat align 2 {
  %2 = alloca ptr, align 8
  store ptr %0, ptr %2, align 8, !tbaa !10
  %3 = load ptr, ptr %2, align 8
  %4 = getelementptr inbounds nuw %"class.rocksdb::Slice", ptr %3, i32 0, i32 1
  %5 = load i64, ptr %4, align 8, !tbaa !16
  ret i64 %5
}

; Function Attrs: mustprogress nounwind uwtable
define linkonce_odr noundef ptr @_ZNK7rocksdb5Slice4dataEv(ptr noundef nonnull align 8 dereferenceable(16) %0) #3 comdat align 2 {
  %2 = alloca ptr, align 8
  store ptr %0, ptr %2, align 8, !tbaa !10
  %3 = load ptr, ptr %2, align 8
  %4 = getelementptr inbounds nuw %"class.rocksdb::Slice", ptr %3, i32 0, i32 0
  %5 = load ptr, ptr %4, align 8, !tbaa !13
  ret ptr %5
}

; Function Attrs: mustprogress nounwind uwtable
define available_externally noundef i64 @_ZNKSt7__cxx1112basic_stringIcSt11char_traitsIcESaIcEE4sizeEv(ptr noundef nonnull align 8 dereferenceable(32) %0) #3 align 2 {
  %2 = alloca ptr, align 8
  store ptr %0, ptr %2, align 8, !tbaa !29
  %3 = load ptr, ptr %2, align 8
  %4 = getelementptr inbounds nuw %"class.std::__cxx11::basic_string", ptr %3, i32 0, i32 1
  %5 = load i64, ptr %4, align 8, !tbaa !528
  ret i64 %5
}

; Function Attrs: mustprogress nounwind uwtable
define available_externally noundef ptr @_ZNKSt7__cxx1112basic_stringIcSt11char_traitsIcESaIcEE4dataEv(ptr noundef nonnull align 8 dereferenceable(32) %0) #3 align 2 {
  %2 = alloca ptr, align 8
  store ptr %0, ptr %2, align 8, !tbaa !29
  %3 = load ptr, ptr %2, align 8
  %4 = call noundef ptr @_ZNKSt7__cxx1112basic_stringIcSt11char_traitsIcESaIcEE7_M_dataEv(ptr noundef nonnull align 8 dereferenceable(32) %3)
  ret ptr %4
}

; Function Attrs: inlinehint mustprogress uwtable
define linkonce_odr noundef i64 @_ZN7rocksdb11FastRange64Emm(i64 noundef %0, i64 noundef %1) #9 comdat {
  %3 = alloca i64, align 8
  %4 = alloca i64, align 8
  store i64 %0, ptr %3, align 8, !tbaa !4
  store i64 %1, ptr %4, align 8, !tbaa !4
  %5 = load i64, ptr %3, align 8, !tbaa !4
  %6 = load i64, ptr %4, align 8, !tbaa !4
  %7 = call noundef i64 @_ZN7rocksdb16FastRangeGenericImmEET0_T_S1_(i64 noundef %5, i64 noundef %6)
  ret i64 %7
}

; Function Attrs: inlinehint mustprogress uwtable
define linkonce_odr noundef i64 @_ZN7rocksdb16GetSliceNPHash64ERKNS_5SliceE(ptr noundef nonnull align 8 dereferenceable(16) %0) #9 comdat {
  %2 = alloca ptr, align 8
  store ptr %0, ptr %2, align 8, !tbaa !10
  %3 = load ptr, ptr %2, align 8, !tbaa !10
  %4 = call noundef ptr @_ZNK7rocksdb5Slice4dataEv(ptr noundef nonnull align 8 dereferenceable(16) %3)
  %5 = load ptr, ptr %2, align 8, !tbaa !10
  %6 = call noundef i64 @_ZNK7rocksdb5Slice4sizeEv(ptr noundef nonnull align 8 dereferenceable(16) %5)
  %7 = call noundef i64 @_ZN7rocksdb8NPHash64EPKcm(ptr noundef %4, i64 noundef %6)
  ret i64 %7
}

; Function Attrs: mustprogress nounwind uwtable
define linkonce_odr void @_ZN7rocksdb5SliceC2ERKNSt7__cxx1112basic_stringIcSt11char_traitsIcESaIcEEE(ptr noundef nonnull align 8 dereferenceable(16) %0, ptr noundef nonnull align 8 dereferenceable(32) %1) unnamed_addr #3 comdat align 2 {
  %3 = alloca ptr, align 8
  %4 = alloca ptr, align 8
  store ptr %0, ptr %3, align 8, !tbaa !10
  store ptr %1, ptr %4, align 8, !tbaa !29
  %5 = load ptr, ptr %3, align 8
  %6 = getelementptr inbounds nuw %"class.rocksdb::Slice", ptr %5, i32 0, i32 0
  %7 = load ptr, ptr %4, align 8, !tbaa !29
  %8 = call noundef ptr @_ZNKSt7__cxx1112basic_stringIcSt11char_traitsIcESaIcEE4dataEv(ptr noundef nonnull align 8 dereferenceable(32) %7) #4
  store ptr %8, ptr %6, align 8, !tbaa !13
  %9 = getelementptr inbounds nuw %"class.rocksdb::Slice", ptr %5, i32 0, i32 1
  %10 = load ptr, ptr %4, align 8, !tbaa !29
  %11 = call noundef i64 @_ZNKSt7__cxx1112basic_stringIcSt11char_traitsIcESaIcEE4sizeEv(ptr noundef nonnull align 8 dereferenceable(32) %10) #4
  store i64 %11, ptr %9, align 8, !tbaa !16
  ret void
}

; Function Attrs: mustprogress uwtable
define noundef i64 @_ZNK7rocksdb7LockMap9GetStripeERKNSt7__cxx1112basic_stringIcSt11char_traitsIcESaIcEEE(ptr noundef nonnull align 8 dereferenceable(40) %0, ptr noundef nonnull align 8 dereferenceable(32) %1) #5 align 2 {
  %3 = alloca ptr, align 8
  %4 = alloca ptr, align 8
  %5 = alloca %"class.rocksdb::Slice", align 8
  store ptr %0, ptr %3, align 8, !tbaa !155
  store ptr %1, ptr %4, align 8, !tbaa !29
  %6 = load ptr, ptr %3, align 8
  call void @llvm.lifetime.start.p0(i64 16, ptr %5) #4
  %7 = load ptr, ptr %4, align 8, !tbaa !29
  call void @_ZN7rocksdb5SliceC2ERKNSt7__cxx1112basic_stringIcSt11char_traitsIcESaIcEEE(ptr noundef nonnull align 8 dereferenceable(16) %5, ptr noundef nonnull align 8 dereferenceable(32) %7)
  %8 = call noundef i64 @_ZN7rocksdb16GetSliceNPHash64ERKNS_5SliceE(ptr noundef nonnull align 8 dereferenceable(16) %5)
  %9 = getelementptr inbounds nuw %"struct.rocksdb::LockMap", ptr %6, i32 0, i32 0
  %10 = load i64, ptr %9, align 8, !tbaa !157
  %11 = call noundef i64 @_ZN7rocksdb11FastRange64Emm(i64 noundef %8, i64 noundef %10)
  call void @llvm.lifetime.end.p0(i64 16, ptr %5) #4
  ret i64 %11
}