; Function Attrs: mustprogress uwtable
define noundef range(i64 0, -1) i64 @_ZNK7rocksdb7LockMap9GetStripeERKNSt7__cxx1112basic_stringIcSt11char_traitsIcESaIcEEE(ptr noundef nonnull readonly align 8 captures(none) dereferenceable(40) %0, ptr noundef nonnull readonly align 8 captures(none) dereferenceable(32) %1) local_unnamed_addr #4 align 2 {
  %3 = load ptr, ptr %1, align 8, !tbaa !11
  %4 = getelementptr inbounds nuw i8, ptr %1, i64 8
  %5 = load i64, ptr %4, align 8, !tbaa !16
  %6 = tail call noundef i64 @_ZN7rocksdb6Hash64EPKcm(ptr noundef %3, i64 noundef %5)
  %7 = load i64, ptr %0, align 8, !tbaa !129
  %8 = and i64 %7, 4294967295
  %9 = and i64 %6, 4294967295
  %10 = mul nuw i64 %8, %9
  %11 = lshr i64 %10, 32
  %12 = lshr i64 %6, 32
  %13 = mul nuw i64 %8, %12
  %14 = add nuw i64 %11, %13
  %15 = lshr i64 %7, 32
  %16 = mul nuw i64 %15, %9
  %17 = and i64 %16, 4294967295
  %18 = add nuw i64 %14, %17
  %19 = lshr i64 %18, 32
  %20 = lshr i64 %16, 32
  %21 = mul nuw i64 %15, %12
  %22 = add nuw i64 %20, %21
  %23 = add nuw i64 %22, %19
  ret i64 %23
}